target datalayout = "e-m:e-p270:32:32-p271:32:32-p272:64:64-i64:64-i128:128-f80:128-n8:16:32:64-S128"
target triple = "x86_64-pc-linux-gnu"

%struct.OnigPairCaseFoldCodes = type { i32, i32 }

@.str = private unnamed_addr constant [11 x i8] c"ISO-8859-3\00", align 1
@OnigEncodingISO_8859_3 = dso_local global { ptr, ptr, i32, i32, ptr, ptr, ptr, ptr, ptr, ptr, ptr, ptr, ptr, ptr, ptr, ptr, ptr, ptr, ptr, i32, i32, i32, [4 x i8] } { ptr @onigenc_single_byte_mbc_enc_len, ptr @.str, i32 1, i32 1, ptr @onigenc_is_mbc_newline_0x0a, ptr @onigenc_single_byte_mbc_to_code, ptr @onigenc_single_byte_code_to_mbclen, ptr @onigenc_single_byte_code_to_mbc, ptr @mbc_case_fold, ptr @apply_all_case_fold, ptr @get_case_fold_codes_by_str, ptr @onigenc_minimum_property_name_to_ctype, ptr @is_code_ctype, ptr @onigenc_not_support_get_ctype_code_range, ptr @onigenc_single_byte_left_adjust_char_head, ptr @onigenc_always_true_is_allowed_reverse_match, ptr null, ptr null, ptr @onigenc_always_true_is_valid_mbc_string, i32 5, i32 0, i32 0, [4 x i8] zeroinitializer }, align 8
@EncISO_8859_3_ToLowerCaseTable = internal constant [256 x i8] c"\00\01\02\03\04\05\06\07\08\09\0A\0B\0C\0D\0E\0F\10\11\12\13\14\15\16\17\18\19\1A\1B\1C\1D\1E\1F !\22#$%&'()*+,-./0123456789:;<=>?@abcdefghijklmnopqrstuvwxyz[\\]^_`abcdefghijklmnopqrstuvwxyz{|}~\7F\80\81\82\83\84\85\86\87\88\89\8A\8B\8C\8D\8E\8F\90\91\92\93\94\95\96\97\98\99\9A\9B\9C\9D\9E\9F\A0\B1\A2\A3\A4\A5\B6\A7\A8\B9\BA\BB\BC\AD\AE\BF\B0\B1\B2\B3\B4\B5\B6\B7\B8\B9\BA\BB\BC\BD\BE\BF\E0\E1\E2\C3\E4\E5\E6\E7\E8\E9\EA\EB\EC\ED\EE\EF\D0\F1\F2\F3\F4\F5\F6\D7\F8\F9\FA\FB\FC\FD\FE\DF\E0\E1\E2\E3\E4\E5\E6\E7\E8\E9\EA\EB\EC\ED\EE\EF\F0\F1\F2\F3\F4\F5\F6\F7\F8\F9\FA\FB\FC\FD\FE\FF", align 16
@CaseFoldMap = internal constant [35 x %struct.OnigPairCaseFoldCodes] [%struct.OnigPairCaseFoldCodes { i32 161, i32 177 }, %struct.OnigPairCaseFoldCodes { i32 166, i32 182 }, %struct.OnigPairCaseFoldCodes { i32 169, i32 185 }, %struct.OnigPairCaseFoldCodes { i32 170, i32 186 }, %struct.OnigPairCaseFoldCodes { i32 171, i32 187 }, %struct.OnigPairCaseFoldCodes { i32 172, i32 188 }, %struct.OnigPairCaseFoldCodes { i32 175, i32 191 }, %struct.OnigPairCaseFoldCodes { i32 192, i32 224 }, %struct.OnigPairCaseFoldCodes { i32 193, i32 225 }, %struct.OnigPairCaseFoldCodes { i32 194, i32 226 }, %struct.OnigPairCaseFoldCodes { i32 196, i32 228 }, %struct.OnigPairCaseFoldCodes { i32 197, i32 229 }, %struct.OnigPairCaseFoldCodes { i32 198, i32 230 }, %struct.OnigPairCaseFoldCodes { i32 199, i32 231 }, %struct.OnigPairCaseFoldCodes { i32 200, i32 232 }, %struct.OnigPairCaseFoldCodes { i32 201, i32 233 }, %struct.OnigPairCaseFoldCodes { i32 202, i32 234 }, %struct.OnigPairCaseFoldCodes { i32 203, i32 235 }, %struct.OnigPairCaseFoldCodes { i32 204, i32 236 }, %struct.OnigPairCaseFoldCodes { i32 205, i32 237 }, %struct.OnigPairCaseFoldCodes { i32 206, i32 238 }, %struct.OnigPairCaseFoldCodes { i32 207, i32 239 }, %struct.OnigPairCaseFoldCodes { i32 209, i32 241 }, %struct.OnigPairCaseFoldCodes { i32 210, i32 242 }, %struct.OnigPairCaseFoldCodes { i32 211, i32 243 }, %struct.OnigPairCaseFoldCodes { i32 212, i32 244 }, %struct.OnigPairCaseFoldCodes { i32 213, i32 245 }, %struct.OnigPairCaseFoldCodes { i32 214, i32 246 }, %struct.OnigPairCaseFoldCodes { i32 216, i32 248 }, %struct.OnigPairCaseFoldCodes { i32 217, i32 249 }, %struct.OnigPairCaseFoldCodes { i32 218, i32 250 }, %struct.OnigPairCaseFoldCodes { i32 219, i32 251 }, %struct.OnigPairCaseFoldCodes { i32 220, i32 252 }, %struct.OnigPairCaseFoldCodes { i32 221, i32 253 }, %struct.OnigPairCaseFoldCodes { i32 222, i32 254 }], align 16
@EncISO_8859_3_CtypeTable = internal constant [256 x i16] [i16 16392, i16 16392, i16 16392, i16 16392, i16 16392, i16 16392, i16 16392, i16 16392, i16 16392, i16 16908, i16 16905, i16 16904, i16 16904, i16 16904, i16 16392, i16 16392, i16 16392, i16 16392, i16 16392, i16 16392, i16 16392, i16 16392, i16 16392, i16 16392, i16 16392, i16 16392, i16 16392, i16 16392, i16 16392, i16 16392, i16 16392, i16 16392, i16 17028, i16 16800, i16 16800, i16 16800, i16 16800, i16 16800, i16 16800, i16 16800, i16 16800, i16 16800, i16 16800, i16 16800, i16 16800, i16 16800, i16 16800, i16 16800, i16 30896, i16 30896, i16 30896, i16 30896, i16 30896, i16 30896, i16 30896, i16 30896, i16 30896, i16 30896, i16 16800, i16 16800, i16 16800, i16 16800, i16 16800, i16 16800, i16 16800, i16 31906, i16 31906, i16 31906, i16 31906, i16 31906, i16 31906, i16 29858, i16 29858, i16 29858, i16 29858, i16 29858, i16 29858, i16 29858, i16 29858, i16 29858, i16 29858, i16 29858, i16 29858, i16 29858, i16 29858, i16 29858, i16 29858, i16 29858, i16 29858, i16 29858, i16 29858, i16 16800, i16 16800, i16 16800, i16 16800, i16 20896, i16 16800, i16 30946, i16 30946, i16 30946, i16 30946, i16 30946, i16 30946, i16 28898, i16 28898, i16 28898, i16 28898, i16 28898, i16 28898, i16 28898, i16 28898, i16 28898, i16 28898, i16 28898, i16 28898, i16 28898, i16 28898, i16 28898, i16 28898, i16 28898, i16 28898, i16 28898, i16 28898, i16 16800, i16 16800, i16 16800, i16 16800, i16 16392, i16 8, i16 8, i16 8, i16 8, i16 8, i16 8, i16 8, i16 8, i16 8, i16 8, i16 8, i16 8, i16 8, i16 8, i16 8, i16 8, i16 8, i16 8, i16 8, i16 8, i16 8, i16 8, i16 8, i16 8, i16 8, i16 8, i16 8, i16 8, i16 8, i16 8, i16 8, i16 8, i16 644, i16 13474, i16 160, i16 160, i16 160, i16 0, i16 13474, i16 160, i16 160, i16 13474, i16 13474, i16 13474, i16 13474, i16 416, i16 0, i16 13474, i16 160, i16 12514, i16 4256, i16 4256, i16 160, i16 12514, i16 12514, i16 416, i16 160, i16 12514, i16 12514, i16 12514, i16 12514, i16 4512, i16 0, i16 12514, i16 13474, i16 13474, i16 13474, i16 0, i16 13474, i16 13474, i16 13474, i16 13474, i16 13474, i16 13474, i16 13474, i16 13474, i16 13474, i16 13474, i16 13474, i16 13474, i16 0, i16 13474, i16 13474, i16 13474, i16 13474, i16 13474, i16 13474, i16 160, i16 13474, i16 13474, i16 13474, i16 13474, i16 13474, i16 13474, i16 13474, i16 12514, i16 12514, i16 12514, i16 12514, i16 0, i16 12514, i16 12514, i16 12514, i16 12514, i16 12514, i16 12514, i16 12514, i16 12514, i16 12514, i16 12514, i16 12514, i16 12514, i16 0, i16 12514, i16 12514, i16 12514, i16 12514, i16 12514, i16 12514, i16 160, i16 12514, i16 12514, i16 12514, i16 12514, i16 12514, i16 12514, i16 12514, i16 160], align 16

declare i32 @onigenc_single_byte_mbc_enc_len(ptr noundef) #0

declare i32 @onigenc_is_mbc_newline_0x0a(ptr noundef, ptr noundef) #0

declare i32 @onigenc_single_byte_mbc_to_code(ptr noundef, ptr noundef) #0

declare i32 @onigenc_single_byte_code_to_mbclen(i32 noundef) #0

declare i32 @onigenc_single_byte_code_to_mbc(i32 noundef, ptr noundef) #0

; Function Attrs: nounwind uwtable
define internal i32 @mbc_case_fold(i32 noundef %0, ptr noundef %1, ptr noundef %2, ptr noundef %3) #1 {
  %5 = alloca i32, align 4
  %6 = alloca i32, align 4
  %7 = alloca ptr, align 8
  %8 = alloca ptr, align 8
  %9 = alloca ptr, align 8
  %10 = alloca ptr, align 8
  %11 = alloca i32, align 4
  store i32 %0, ptr %6, align 4, !tbaa !4
  store ptr %1, ptr %7, align 8, !tbaa !8
  store ptr %2, ptr %8, align 8, !tbaa !11
  store ptr %3, ptr %9, align 8, !tbaa !11
  call void @llvm.lifetime.start.p0(i64 8, ptr %10) #3
  %12 = load ptr, ptr %7, align 8, !tbaa !8
  %13 = load ptr, ptr %12, align 8, !tbaa !11
  store ptr %13, ptr %10, align 8, !tbaa !11
  %14 = load ptr, ptr %10, align 8, !tbaa !11
  %15 = load i8, ptr %14, align 1, !tbaa !13
  %16 = zext i8 %15 to i32
  %17 = icmp eq i32 %16, 223
  br i1 %17, label %18, label %29

18:                                               ; preds = %4
  %19 = load i32, ptr %6, align 4, !tbaa !4
  %20 = and i32 %19, 1073741824
  %21 = icmp ne i32 %20, 0
  br i1 %21, label %22, label %29

22:                                               ; preds = %18
  %23 = load ptr, ptr %9, align 8, !tbaa !11
  %24 = getelementptr inbounds nuw i8, ptr %23, i32 1
  store ptr %24, ptr %9, align 8, !tbaa !11
  store i8 115, ptr %23, align 1, !tbaa !13
  %25 = load ptr, ptr %9, align 8, !tbaa !11
  store i8 115, ptr %25, align 1, !tbaa !13
  %26 = load ptr, ptr %7, align 8, !tbaa !8
  %27 = load ptr, ptr %26, align 8, !tbaa !11
  %28 = getelementptr inbounds nuw i8, ptr %27, i32 1
  store ptr %28, ptr %26, align 8, !tbaa !11
  store i32 2, ptr %5, align 4
  store i32 1, ptr %11, align 4
  br label %53

29:                                               ; preds = %18, %4
  %30 = load i32, ptr %6, align 4, !tbaa !4
  %31 = and i32 %30, 1
  %32 = icmp eq i32 %31, 0
  br i1 %32, label %38, label %33

33:                                               ; preds = %29
  %34 = load ptr, ptr %10, align 8, !tbaa !11
  %35 = load i8, ptr %34, align 1, !tbaa !13
  %36 = zext i8 %35 to i32
  %37 = icmp slt i32 %36, 128
  br i1 %37, label %38, label %45

38:                                               ; preds = %33, %29
  %39 = load ptr, ptr %10, align 8, !tbaa !11
  %40 = load i8, ptr %39, align 1, !tbaa !13
  %41 = zext i8 %40 to i64
  %42 = getelementptr inbounds nuw [256 x i8], ptr @EncISO_8859_3_ToLowerCaseTable, i64 0, i64 %41
  %43 = load i8, ptr %42, align 1, !tbaa !13
  %44 = load ptr, ptr %9, align 8, !tbaa !11
  store i8 %43, ptr %44, align 1, !tbaa !13
  br label %49

45:                                               ; preds = %33
  %46 = load ptr, ptr %10, align 8, !tbaa !11
  %47 = load i8, ptr %46, align 1, !tbaa !13
  %48 = load ptr, ptr %9, align 8, !tbaa !11
  store i8 %47, ptr %48, align 1, !tbaa !13
  br label %49

49:                                               ; preds = %45, %38
  %50 = load ptr, ptr %7, align 8, !tbaa !8
  %51 = load ptr, ptr %50, align 8, !tbaa !11
  %52 = getelementptr inbounds nuw i8, ptr %51, i32 1
  store ptr %52, ptr %50, align 8, !tbaa !11
  store i32 1, ptr %5, align 4
  store i32 1, ptr %11, align 4
  br label %53

53:                                               ; preds = %49, %22
  call void @llvm.lifetime.end.p0(i64 8, ptr %10) #3
  %54 = load i32, ptr %5, align 4
  ret i32 %54
}

; Function Attrs: nounwind uwtable
define internal i32 @apply_all_case_fold(i32 noundef %0, ptr noundef %1, ptr noundef %2) #1 {
  %4 = alloca i32, align 4
  %5 = alloca ptr, align 8
  %6 = alloca ptr, align 8
  store i32 %0, ptr %4, align 4, !tbaa !4
  store ptr %1, ptr %5, align 8, !tbaa !14
  store ptr %2, ptr %6, align 8, !tbaa !14
  %7 = load i32, ptr %4, align 4, !tbaa !4
  %8 = load ptr, ptr %5, align 8, !tbaa !14
  %9 = load ptr, ptr %6, align 8, !tbaa !14
  %10 = call i32 @onigenc_apply_all_case_fold_with_map(i32 noundef 35, ptr noundef @CaseFoldMap, i32 noundef 1, i32 noundef %7, ptr noundef %8, ptr noundef %9)
  ret i32 %10
}

; Function Attrs: nounwind uwtable
define internal i32 @get_case_fold_codes_by_str(i32 noundef %0, ptr noundef %1, ptr noundef %2, ptr noundef %3) #1 {
  %5 = alloca i32, align 4
  %6 = alloca ptr, align 8
  %7 = alloca ptr, align 8
  %8 = alloca ptr, align 8
  store i32 %0, ptr %5, align 4, !tbaa !4
  store ptr %1, ptr %6, align 8, !tbaa !11
  store ptr %2, ptr %7, align 8, !tbaa !11
  store ptr %3, ptr %8, align 8, !tbaa !14
  %9 = load i32, ptr %5, align 4, !tbaa !4
  %10 = load ptr, ptr %6, align 8, !tbaa !11
  %11 = load ptr, ptr %7, align 8, !tbaa !11
  %12 = load ptr, ptr %8, align 8, !tbaa !14
  %13 = call i32 @onigenc_get_case_fold_codes_by_str_with_map(i32 noundef 35, ptr noundef @CaseFoldMap, i32 noundef 1, i32 noundef %9, ptr noundef %10, ptr noundef %11, ptr noundef %12)
  ret i32 %13
}

declare i32 @onigenc_minimum_property_name_to_ctype(ptr noundef, ptr noundef, ptr noundef) #0

; Function Attrs: nounwind uwtable
define internal i32 @is_code_ctype(i32 noundef %0, i32 noundef %1) #1 {
  %3 = alloca i32, align 4
  %4 = alloca i32, align 4
  %5 = alloca i32, align 4
  store i32 %0, ptr %4, align 4, !tbaa !4
  store i32 %1, ptr %5, align 4, !tbaa !4
  %6 = load i32, ptr %4, align 4, !tbaa !4
  %7 = icmp ult i32 %6, 256
  br i1 %7, label %8, label %19

8:                                                ; preds = %2
  %9 = load i32, ptr %4, align 4, !tbaa !4
  %10 = zext i32 %9 to i64
  %11 = getelementptr inbounds nuw [256 x i16], ptr @EncISO_8859_3_CtypeTable, i64 0, i64 %10
  %12 = load i16, ptr %11, align 2, !tbaa !15
  %13 = zext i16 %12 to i32
  %14 = load i32, ptr %5, align 4, !tbaa !4
  %15 = shl i32 1, %14
  %16 = and i32 %13, %15
  %17 = icmp ne i32 %16, 0
  %18 = zext i1 %17 to i32
  store i32 %18, ptr %3, align 4
  br label %20

19:                                               ; preds = %2
  store i32 0, ptr %3, align 4
  br label %20

20:                                               ; preds = %19, %8
  %21 = load i32, ptr %3, align 4
  ret i32 %21
}

declare i32 @onigenc_not_support_get_ctype_code_range(i32 noundef, ptr noundef, ptr noundef) #0

declare ptr @onigenc_single_byte_left_adjust_char_head(ptr noundef, ptr noundef) #0

declare i32 @onigenc_always_true_is_allowed_reverse_match(ptr noundef, ptr noundef) #0

declare i32 @onigenc_always_true_is_valid_mbc_string(ptr noundef, ptr noundef) #0

; Function Attrs: nocallback nofree nosync nounwind willreturn memory(argmem: readwrite)
declare void @llvm.lifetime.start.p0(i64 immarg, ptr captures(none)) #2

; Function Attrs: nocallback nofree nosync nounwind willreturn memory(argmem: readwrite)
declare void @llvm.lifetime.end.p0(i64 immarg, ptr captures(none)) #2

declare i32 @onigenc_apply_all_case_fold_with_map(i32 noundef, ptr noundef, i32 noundef, i32 noundef, ptr noundef, ptr noundef) #0

declare i32 @onigenc_get_case_fold_codes_by_str_with_map(i32 noundef, ptr noundef, i32 noundef, i32 noundef, ptr noundef, ptr noundef, ptr noundef) #0


!llvm.module.flags = !{!0, !1, !2, !3}

!0 = !{i32 1, !"wchar_size", i32 4}
!1 = !{i32 8, !"PIC Level", i32 2}
!2 = !{i32 7, !"PIE Level", i32 2}
!3 = !{i32 7, !"uwtable", i32 2}
!4 = !{!5, !5, i64 0}
!5 = !{!"int", !6, i64 0}
!6 = !{!"omnipotent char", !7, i64 0}
!7 = !{!"Simple C/C++ TBAA"}
!8 = !{!9, !9, i64 0}
!9 = !{!"p2 omnipotent char", !10, i64 0}
!10 = !{!"any pointer", !6, i64 0}
!11 = !{!12, !12, i64 0}
!12 = !{!"p1 omnipotent char", !10, i64 0}
!13 = !{!6, !6, i64 0}
!14 = !{!10, !10, i64 0}
!15 = !{!16, !16, i64 0}
!16 = !{!"short", !6, i64 0}
